; Function Attrs: mustprogress nofree norecurse nosync nounwind willreturn memory(read, inaccessiblemem: none) uwtable
define noundef float @_ZNK13b2PulleyJoint17GetCurrentLengthBEv(ptr nocapture noundef nonnull readonly align 8 dereferenceable(256) %this) local_unnamed_addr #6 align 2 {
entry:
  %m_bodyB = getelementptr inbounds i8, ptr %this, i64 104
  %0 = load ptr, ptr %m_bodyB, align 8
  %m_localAnchorB = getelementptr inbounds i8, ptr %this, i64 160
  %m_xf.i = getelementptr inbounds i8, ptr %0, i64 12
  %q.i.i = getelementptr inbounds i8, ptr %0, i64 20
  %c.i.i = getelementptr inbounds i8, ptr %0, i64 24
  %1 = load float, ptr %c.i.i, align 4
  %2 = load float, ptr %m_localAnchorB, align 8
  %3 = load float, ptr %q.i.i, align 4
  %y.i.i = getelementptr inbounds i8, ptr %this, i64 164
  %4 = load float, ptr %y.i.i, align 4
  %5 = fneg float %3
  %neg.i.i = fmul float %4, %5
  %6 = tail call float @llvm.fmuladd.f32(float %1, float %2, float %neg.i.i)
  %7 = load float, ptr %m_xf.i, align 4
  %add.i.i = fadd float %7, %6
  %mul12.i.i = fmul float %1, %4
  %8 = tail call float @llvm.fmuladd.f32(float %3, float %2, float %mul12.i.i)
  %y14.i.i = getelementptr inbounds i8, ptr %0, i64 16
  %9 = load float, ptr %y14.i.i, align 4
  %add15.i.i = fadd float %8, %9
  %m_groundAnchorB = getelementptr inbounds i8, ptr %this, i64 136
  %10 = load float, ptr %m_groundAnchorB, align 8
  %m_groundAnchorB.sroa_idx = getelementptr inbounds i8, ptr %this, i64 140
  %11 = load float, ptr %m_groundAnchorB.sroa_idx, align 4
  %sub.i = fsub float %add.i.i, %10
  %sub3.i = fsub float %add15.i.i, %11
  %mul4.i = fmul float %sub3.i, %sub3.i
  %12 = tail call float @llvm.fmuladd.f32(float %sub.i, float %sub.i, float %mul4.i)
  %sqrt.i = tail call noundef float @llvm.sqrt.f32(float %12)
  ret float %sqrt.i
}